target datalayout = "e-m:e-p270:32:32-p271:32:32-p272:64:64-i64:64-i128:128-f80:128-n8:16:32:64-S128"
target triple = "x86_64-pc-linux-gnu"

@.str.30 = private unnamed_addr constant [39 x i8] c"Converting miter into AIG has failed.\0A\00", align 1

; Function Attrs: nounwind uwtable
define i32 @Abc_NtkDarSimSec(ptr noundef %0, ptr noundef %1, ptr noundef %2) #0 {
  %4 = alloca i32, align 4
  %5 = alloca ptr, align 8
  %6 = alloca ptr, align 8
  %7 = alloca ptr, align 8
  %8 = alloca ptr, align 8
  %9 = alloca ptr, align 8
  %10 = alloca i32, align 4
  store ptr %0, ptr %5, align 8
  store ptr %1, ptr %6, align 8
  store ptr %2, ptr %7, align 8
  store ptr null, ptr %9, align 8
  %11 = load ptr, ptr %5, align 8
  %12 = call ptr @Abc_NtkToDar(ptr noundef %11, i32 noundef 0, i32 noundef 1)
  store ptr %12, ptr %8, align 8
  %13 = load ptr, ptr %8, align 8
  %14 = icmp eq ptr %13, null
  br i1 %14, label %15, label %16

15:                                               ; preds = %3
  call void (i32, ptr, ...) @Abc_Print(i32 noundef 1, ptr noundef @.str.30)
  store i32 -1, ptr %4, align 4
  br label %38

16:                                               ; preds = %3
  %17 = load ptr, ptr %6, align 8
  %18 = icmp ne ptr %17, null
  br i1 %18, label %19, label %26

19:                                               ; preds = %16
  %20 = load ptr, ptr %6, align 8
  %21 = call ptr @Abc_NtkToDar(ptr noundef %20, i32 noundef 0, i32 noundef 1)
  store ptr %21, ptr %9, align 8
  %22 = load ptr, ptr %9, align 8
  %23 = icmp eq ptr %22, null
  br i1 %23, label %24, label %25

24:                                               ; preds = %19
  call void (i32, ptr, ...) @Abc_Print(i32 noundef 1, ptr noundef @.str.30)
  store i32 -1, ptr %4, align 4
  br label %38

25:                                               ; preds = %19
  br label %26

26:                                               ; preds = %25, %16
  %27 = load ptr, ptr %8, align 8
  %28 = load ptr, ptr %9, align 8
  %29 = load ptr, ptr %7, align 8
  %30 = call i32 @Ssw_SecWithSimilarity(ptr noundef %27, ptr noundef %28, ptr noundef %29)
  store i32 %30, ptr %10, align 4
  %31 = load ptr, ptr %8, align 8
  call void @Aig_ManStop(ptr noundef %31)
  %32 = load ptr, ptr %9, align 8
  %33 = icmp ne ptr %32, null
  br i1 %33, label %34, label %36

34:                                               ; preds = %26
  %35 = load ptr, ptr %9, align 8
  call void @Aig_ManStop(ptr noundef %35)
  br label %36

36:                                               ; preds = %34, %26
  %37 = load i32, ptr %10, align 4
  store i32 %37, ptr %4, align 4
  br label %38

38:                                               ; preds = %36, %24, %15
  %39 = load i32, ptr %4, align 4
  ret i32 %39
}