; Function Attrs: nounwind uwtable
define i32 @Abc_NtkDarSimSec(ptr noundef %0, ptr noundef %1, ptr noundef %2) local_unnamed_addr #1 {
  %4 = tail call ptr @Abc_NtkToDar(ptr noundef %0, i32 noundef 0, i32 noundef 1)
  %5 = icmp eq ptr %4, null
  br i1 %5, label %6, label %7

6:                                                ; preds = %3
  tail call void (i32, ptr, ...) @Abc_Print(i32 poison, ptr noundef nonnull @.str.30)
  br label %15

7:                                                ; preds = %3
  %.not = icmp eq ptr %1, null
  br i1 %.not, label %12, label %8

8:                                                ; preds = %7
  %9 = tail call ptr @Abc_NtkToDar(ptr noundef nonnull %1, i32 noundef 0, i32 noundef 1)
  %10 = icmp eq ptr %9, null
  br i1 %10, label %11, label %12

11:                                               ; preds = %8
  tail call void (i32, ptr, ...) @Abc_Print(i32 poison, ptr noundef nonnull @.str.30)
  br label %15

12:                                               ; preds = %8, %7
  %.012 = phi ptr [ %9, %8 ], [ null, %7 ]
  %13 = tail call i32 @Ssw_SecWithSimilarity(ptr noundef nonnull %4, ptr noundef %.012, ptr noundef %2) #19
  tail call void @Aig_ManStop(ptr noundef nonnull %4) #19
  %.not16 = icmp eq ptr %.012, null
  br i1 %.not16, label %15, label %14

14:                                               ; preds = %12
  tail call void @Aig_ManStop(ptr noundef nonnull %.012) #19
  br label %15

15:                                               ; preds = %12, %14, %11, %6
  %.0 = phi i32 [ -1, %6 ], [ -1, %11 ], [ %13, %14 ], [ %13, %12 ]
  ret i32 %.0
}